target datalayout = "e-m:e-p270:32:32-p271:32:32-p272:64:64-i64:64-i128:128-f80:128-n8:16:32:64-S128"
target triple = "x86_64-pc-linux-gnu"

; Function Attrs: nounwind sspstrong uwtable
define hidden void @FLAC__lpc_compute_lp_coefficients(ptr noundef %0, ptr noundef %1, ptr noundef %2, ptr noundef %3) #0 {
  %5 = alloca ptr, align 8
  %6 = alloca ptr, align 8
  %7 = alloca ptr, align 8
  %8 = alloca ptr, align 8
  %9 = alloca i32, align 4
  %10 = alloca i32, align 4
  %11 = alloca double, align 8
  %12 = alloca double, align 8
  %13 = alloca [32 x double], align 16
  %14 = alloca double, align 8
  %15 = alloca i32, align 4
  store ptr %0, ptr %5, align 8, !tbaa !25
  store ptr %1, ptr %6, align 8, !tbaa !3
  store ptr %2, ptr %7, align 8, !tbaa !8
  store ptr %3, ptr %8, align 8, !tbaa !25
  call void @llvm.lifetime.start.p0(i64 4, ptr %9) #5
  call void @llvm.lifetime.start.p0(i64 4, ptr %10) #5
  call void @llvm.lifetime.start.p0(i64 8, ptr %11) #5
  call void @llvm.lifetime.start.p0(i64 8, ptr %12) #5
  call void @llvm.lifetime.start.p0(i64 256, ptr %13) #5
  %16 = load ptr, ptr %5, align 8, !tbaa !25
  %17 = getelementptr inbounds double, ptr %16, i64 0
  %18 = load double, ptr %17, align 8, !tbaa !27
  store double %18, ptr %12, align 8, !tbaa !27
  store i32 0, ptr %9, align 4, !tbaa !10
  br label %19

19:                                               ; preds = %154, %4
  %20 = load i32, ptr %9, align 4, !tbaa !10
  %21 = load ptr, ptr %6, align 8, !tbaa !3
  %22 = load i32, ptr %21, align 4, !tbaa !10
  %23 = icmp ult i32 %20, %22
  br i1 %23, label %24, label %157

24:                                               ; preds = %19
  %25 = load ptr, ptr %5, align 8, !tbaa !25
  %26 = load i32, ptr %9, align 4, !tbaa !10
  %27 = add i32 %26, 1
  %28 = zext i32 %27 to i64
  %29 = getelementptr inbounds nuw double, ptr %25, i64 %28
  %30 = load double, ptr %29, align 8, !tbaa !27
  %31 = fneg reassoc nsz arcp double %30
  store double %31, ptr %11, align 8, !tbaa !27
  store i32 0, ptr %10, align 4, !tbaa !10
  br label %32

32:                                               ; preds = %51, %24
  %33 = load i32, ptr %10, align 4, !tbaa !10
  %34 = load i32, ptr %9, align 4, !tbaa !10
  %35 = icmp ult i32 %33, %34
  br i1 %35, label %36, label %54

36:                                               ; preds = %32
  %37 = load i32, ptr %10, align 4, !tbaa !10
  %38 = zext i32 %37 to i64
  %39 = getelementptr inbounds nuw [32 x double], ptr %13, i64 0, i64 %38
  %40 = load double, ptr %39, align 8, !tbaa !27
  %41 = load ptr, ptr %5, align 8, !tbaa !25
  %42 = load i32, ptr %9, align 4, !tbaa !10
  %43 = load i32, ptr %10, align 4, !tbaa !10
  %44 = sub i32 %42, %43
  %45 = zext i32 %44 to i64
  %46 = getelementptr inbounds nuw double, ptr %41, i64 %45
  %47 = load double, ptr %46, align 8, !tbaa !27
  %48 = load double, ptr %11, align 8, !tbaa !27
  %49 = fneg reassoc nsz arcp double %40
  %50 = call reassoc nsz arcp double @llvm.fmuladd.f64(double %49, double %47, double %48)
  store double %50, ptr %11, align 8, !tbaa !27
  br label %51

51:                                               ; preds = %36
  %52 = load i32, ptr %10, align 4, !tbaa !10
  %53 = add i32 %52, 1
  store i32 %53, ptr %10, align 4, !tbaa !10
  br label %32, !llvm.loop !49

54:                                               ; preds = %32
  %55 = load double, ptr %12, align 8, !tbaa !27
  %56 = load double, ptr %11, align 8, !tbaa !27
  %57 = fdiv reassoc nsz arcp double %56, %55
  store double %57, ptr %11, align 8, !tbaa !27
  %58 = load double, ptr %11, align 8, !tbaa !27
  %59 = load i32, ptr %9, align 4, !tbaa !10
  %60 = zext i32 %59 to i64
  %61 = getelementptr inbounds nuw [32 x double], ptr %13, i64 0, i64 %60
  store double %58, ptr %61, align 8, !tbaa !27
  store i32 0, ptr %10, align 4, !tbaa !10
  br label %62

62:                                               ; preds = %95, %54
  %63 = load i32, ptr %10, align 4, !tbaa !10
  %64 = load i32, ptr %9, align 4, !tbaa !10
  %65 = lshr i32 %64, 1
  %66 = icmp ult i32 %63, %65
  br i1 %66, label %67, label %98

67:                                               ; preds = %62
  call void @llvm.lifetime.start.p0(i64 8, ptr %14) #5
  %68 = load i32, ptr %10, align 4, !tbaa !10
  %69 = zext i32 %68 to i64
  %70 = getelementptr inbounds nuw [32 x double], ptr %13, i64 0, i64 %69
  %71 = load double, ptr %70, align 8, !tbaa !27
  store double %71, ptr %14, align 8, !tbaa !27
  %72 = load double, ptr %11, align 8, !tbaa !27
  %73 = load i32, ptr %9, align 4, !tbaa !10
  %74 = sub i32 %73, 1
  %75 = load i32, ptr %10, align 4, !tbaa !10
  %76 = sub i32 %74, %75
  %77 = zext i32 %76 to i64
  %78 = getelementptr inbounds nuw [32 x double], ptr %13, i64 0, i64 %77
  %79 = load double, ptr %78, align 8, !tbaa !27
  %80 = load i32, ptr %10, align 4, !tbaa !10
  %81 = zext i32 %80 to i64
  %82 = getelementptr inbounds nuw [32 x double], ptr %13, i64 0, i64 %81
  %83 = load double, ptr %82, align 8, !tbaa !27
  %84 = call reassoc nsz arcp double @llvm.fmuladd.f64(double %72, double %79, double %83)
  store double %84, ptr %82, align 8, !tbaa !27
  %85 = load double, ptr %11, align 8, !tbaa !27
  %86 = load double, ptr %14, align 8, !tbaa !27
  %87 = load i32, ptr %9, align 4, !tbaa !10
  %88 = sub i32 %87, 1
  %89 = load i32, ptr %10, align 4, !tbaa !10
  %90 = sub i32 %88, %89
  %91 = zext i32 %90 to i64
  %92 = getelementptr inbounds nuw [32 x double], ptr %13, i64 0, i64 %91
  %93 = load double, ptr %92, align 8, !tbaa !27
  %94 = call reassoc nsz arcp double @llvm.fmuladd.f64(double %85, double %86, double %93)
  store double %94, ptr %92, align 8, !tbaa !27
  call void @llvm.lifetime.end.p0(i64 8, ptr %14) #5
  br label %95

95:                                               ; preds = %67
  %96 = load i32, ptr %10, align 4, !tbaa !10
  %97 = add i32 %96, 1
  store i32 %97, ptr %10, align 4, !tbaa !10
  br label %62, !llvm.loop !50

98:                                               ; preds = %62
  %99 = load i32, ptr %9, align 4, !tbaa !10
  %100 = and i32 %99, 1
  %101 = icmp ne i32 %100, 0
  br i1 %101, label %102, label %113

102:                                              ; preds = %98
  %103 = load i32, ptr %10, align 4, !tbaa !10
  %104 = zext i32 %103 to i64
  %105 = getelementptr inbounds nuw [32 x double], ptr %13, i64 0, i64 %104
  %106 = load double, ptr %105, align 8, !tbaa !27
  %107 = load double, ptr %11, align 8, !tbaa !27
  %108 = load i32, ptr %10, align 4, !tbaa !10
  %109 = zext i32 %108 to i64
  %110 = getelementptr inbounds nuw [32 x double], ptr %13, i64 0, i64 %109
  %111 = load double, ptr %110, align 8, !tbaa !27
  %112 = call reassoc nsz arcp double @llvm.fmuladd.f64(double %106, double %107, double %111)
  store double %112, ptr %110, align 8, !tbaa !27
  br label %113

113:                                              ; preds = %102, %98
  %114 = load double, ptr %11, align 8, !tbaa !27
  %115 = load double, ptr %11, align 8, !tbaa !27
  %116 = fneg reassoc nsz arcp double %114
  %117 = call reassoc nsz arcp double @llvm.fmuladd.f64(double %116, double %115, double 1.000000e+00)
  %118 = load double, ptr %12, align 8, !tbaa !27
  %119 = fmul reassoc nsz arcp double %118, %117
  store double %119, ptr %12, align 8, !tbaa !27
  store i32 0, ptr %10, align 4, !tbaa !10
  br label %120

120:                                              ; preds = %138, %113
  %121 = load i32, ptr %10, align 4, !tbaa !10
  %122 = load i32, ptr %9, align 4, !tbaa !10
  %123 = icmp ule i32 %121, %122
  br i1 %123, label %124, label %141

124:                                              ; preds = %120
  %125 = load i32, ptr %10, align 4, !tbaa !10
  %126 = zext i32 %125 to i64
  %127 = getelementptr inbounds nuw [32 x double], ptr %13, i64 0, i64 %126
  %128 = load double, ptr %127, align 8, !tbaa !27
  %129 = fneg reassoc nsz arcp double %128
  %130 = fptrunc reassoc nsz arcp double %129 to float
  %131 = load ptr, ptr %7, align 8, !tbaa !8
  %132 = load i32, ptr %9, align 4, !tbaa !10
  %133 = zext i32 %132 to i64
  %134 = getelementptr inbounds nuw [32 x float], ptr %131, i64 %133
  %135 = load i32, ptr %10, align 4, !tbaa !10
  %136 = zext i32 %135 to i64
  %137 = getelementptr inbounds nuw [32 x float], ptr %134, i64 0, i64 %136
  store float %130, ptr %137, align 4, !tbaa !12
  br label %138

138:                                              ; preds = %124
  %139 = load i32, ptr %10, align 4, !tbaa !10
  %140 = add i32 %139, 1
  store i32 %140, ptr %10, align 4, !tbaa !10
  br label %120, !llvm.loop !51

141:                                              ; preds = %120
  %142 = load double, ptr %12, align 8, !tbaa !27
  %143 = load ptr, ptr %8, align 8, !tbaa !25
  %144 = load i32, ptr %9, align 4, !tbaa !10
  %145 = zext i32 %144 to i64
  %146 = getelementptr inbounds nuw double, ptr %143, i64 %145
  store double %142, ptr %146, align 8, !tbaa !27
  %147 = load double, ptr %12, align 8, !tbaa !27
  %148 = fcmp reassoc nsz arcp oeq double %147, 0.000000e+00
  br i1 %148, label %149, label %153

149:                                              ; preds = %141
  %150 = load i32, ptr %9, align 4, !tbaa !10
  %151 = add i32 %150, 1
  %152 = load ptr, ptr %6, align 8, !tbaa !3
  store i32 %151, ptr %152, align 4, !tbaa !10
  store i32 1, ptr %15, align 4
  br label %158

153:                                              ; preds = %141
  br label %154

154:                                              ; preds = %153
  %155 = load i32, ptr %9, align 4, !tbaa !10
  %156 = add i32 %155, 1
  store i32 %156, ptr %9, align 4, !tbaa !10
  br label %19, !llvm.loop !52

157:                                              ; preds = %19
  store i32 0, ptr %15, align 4
  br label %158

158:                                              ; preds = %157, %149
  call void @llvm.lifetime.end.p0(i64 256, ptr %13) #5
  call void @llvm.lifetime.end.p0(i64 8, ptr %12) #5
  call void @llvm.lifetime.end.p0(i64 8, ptr %11) #5
  call void @llvm.lifetime.end.p0(i64 4, ptr %10) #5
  call void @llvm.lifetime.end.p0(i64 4, ptr %9) #5
  %159 = load i32, ptr %15, align 4
  switch i32 %159, label %161 [
    i32 0, label %160
    i32 1, label %160
  ]

160:                                              ; preds = %158, %158
  ret void

161:                                              ; preds = %158
  unreachable
}